target datalayout = "e-m:e-p270:32:32-p271:32:32-p272:64:64-i64:64-i128:128-f80:128-n8:16:32:64-S128"
target triple = "x86_64-pc-linux-gnu"

%struct.rb_io_encoding = type { ptr, ptr, i32, i64 }
%struct.RBasic = type { i64, i64 }
%struct.RData = type { %struct.RBasic, ptr, ptr, ptr }
%struct.argf = type { i64, i64, i64, i64, i64, i64, %struct.rb_io_encoding, i8, i8, i8 }

; Function Attrs: nounwind sspstrong uwtable
define internal i64 @argf_binmode_p(i64 noundef %0) #0 {
  %2 = alloca i64, align 8
  store i64 %0, ptr %2, align 8, !tbaa !32
  %3 = load i64, ptr %2, align 8, !tbaa !32
  %4 = inttoptr i64 %3 to ptr
  %5 = getelementptr inbounds nuw %struct.RData, ptr %4, i32 0, i32 3
  %6 = load ptr, ptr %5, align 8, !tbaa !62
  %7 = getelementptr inbounds nuw %struct.argf, ptr %6, i32 0, i32 9
  %8 = load i8, ptr %7, align 2, !tbaa !148
  %9 = sext i8 %8 to i32
  %10 = icmp ne i32 %9, 0
  %11 = select i1 %10, i64 20, i64 0
  ret i64 %11
}