; Function Attrs: mustprogress nofree norecurse nosync nounwind sspstrong willreturn memory(read, inaccessiblemem: none) uwtable
define internal range(i64 0, 21) i64 @argf_binmode_p(i64 noundef %0) #17 {
  %2 = inttoptr i64 %0 to ptr
  %3 = getelementptr inbounds nuw i8, ptr %2, i64 32
  %4 = load ptr, ptr %3, align 8, !tbaa !59
  %5 = getelementptr inbounds nuw i8, ptr %4, i64 82
  %6 = load i8, ptr %5, align 2, !tbaa !193
  %.not = icmp eq i8 %6, 0
  %7 = select i1 %.not, i64 0, i64 20
  ret i64 %7
}